target datalayout = "e-m:e-p270:32:32-p271:32:32-p272:64:64-i64:64-i128:128-f80:128-n8:16:32:64-S128"
target triple = "x86_64-pc-linux-gnu"

%struct._wmem_tree_key_t = type { i32, ptr }
%struct._packet_info = type { ptr, ptr, i32, i32, %struct.nstime_t, %struct.nstime_t, %struct.nstime_t, i8, ptr, ptr, ptr, ptr, %struct._address, %struct._address, %struct._address, %struct._address, %struct._address, %struct._address, i32, ptr, i8, [3 x i8], %struct.anon, i32, i32, i32, i32, ptr, i8, ptr, ptr, i16, i16, i32, i32, i16, i32, i32, ptr, ptr, ptr, i8, i8, i16, i16, i16, i32, i16, i16, ptr, ptr, ptr, ptr, ptr, i32, i32 }
%struct.nstime_t = type { i64, i32 }
%struct._address = type { i32, i32, ptr, ptr }
%struct.anon = type { i8, [3 x i8] }
%struct._bluetooth_data_t = type { i32, i32, ptr, ptr, ptr, ptr, ptr, ptr, ptr, ptr, ptr, ptr, ptr, i32, %union.anon }
%union.anon = type { ptr }
%struct._fragment_data_t = type { i32, i32, i32, ptr }

@fragments = internal global ptr null, align 8

; Function Attrs: null_pointer_is_valid sspstrong uwtable
define internal void @save_value_fragment(ptr noundef %0, ptr noundef %1, i32 noundef %2, i32 noundef %3, i32 noundef %4, ptr noundef %5) #0 {
  %7 = alloca ptr, align 8
  %8 = alloca ptr, align 8
  %9 = alloca i32, align 4
  %10 = alloca i32, align 4
  %11 = alloca i32, align 4
  %12 = alloca ptr, align 8
  %13 = alloca [5 x %struct._wmem_tree_key_t], align 16
  %14 = alloca i32, align 4
  %15 = alloca ptr, align 8
  store ptr %0, ptr %7, align 8
  store ptr %1, ptr %8, align 8
  store i32 %2, ptr %9, align 4
  store i32 %3, ptr %10, align 4
  store i32 %4, ptr %11, align 4
  store ptr %5, ptr %12, align 8
  call void @llvm.lifetime.start.p0(i64 80, ptr %13) #12
  call void @llvm.lifetime.start.p0(i64 4, ptr %14) #12
  call void @llvm.lifetime.start.p0(i64 8, ptr %15) #12
  %16 = load ptr, ptr %7, align 8
  %17 = getelementptr inbounds nuw %struct._packet_info, ptr %16, i32 0, i32 3
  %18 = load i32, ptr %17, align 4
  store i32 %18, ptr %14, align 4
  %19 = getelementptr [5 x %struct._wmem_tree_key_t], ptr %13, i64 0, i64 0
  %20 = getelementptr inbounds nuw %struct._wmem_tree_key_t, ptr %19, i32 0, i32 0
  store i32 1, ptr %20, align 16
  %21 = load ptr, ptr %12, align 8
  %22 = getelementptr inbounds nuw %struct._bluetooth_data_t, ptr %21, i32 0, i32 0
  %23 = getelementptr [5 x %struct._wmem_tree_key_t], ptr %13, i64 0, i64 0
  %24 = getelementptr inbounds nuw %struct._wmem_tree_key_t, ptr %23, i32 0, i32 1
  store ptr %22, ptr %24, align 8
  %25 = getelementptr [5 x %struct._wmem_tree_key_t], ptr %13, i64 0, i64 1
  %26 = getelementptr inbounds nuw %struct._wmem_tree_key_t, ptr %25, i32 0, i32 0
  store i32 1, ptr %26, align 16
  %27 = load ptr, ptr %12, align 8
  %28 = getelementptr inbounds nuw %struct._bluetooth_data_t, ptr %27, i32 0, i32 1
  %29 = getelementptr [5 x %struct._wmem_tree_key_t], ptr %13, i64 0, i64 1
  %30 = getelementptr inbounds nuw %struct._wmem_tree_key_t, ptr %29, i32 0, i32 1
  store ptr %28, ptr %30, align 8
  %31 = getelementptr [5 x %struct._wmem_tree_key_t], ptr %13, i64 0, i64 2
  %32 = getelementptr inbounds nuw %struct._wmem_tree_key_t, ptr %31, i32 0, i32 0
  store i32 1, ptr %32, align 16
  %33 = getelementptr [5 x %struct._wmem_tree_key_t], ptr %13, i64 0, i64 2
  %34 = getelementptr inbounds nuw %struct._wmem_tree_key_t, ptr %33, i32 0, i32 1
  store ptr %10, ptr %34, align 8
  %35 = getelementptr [5 x %struct._wmem_tree_key_t], ptr %13, i64 0, i64 3
  %36 = getelementptr inbounds nuw %struct._wmem_tree_key_t, ptr %35, i32 0, i32 0
  store i32 1, ptr %36, align 16
  %37 = getelementptr [5 x %struct._wmem_tree_key_t], ptr %13, i64 0, i64 3
  %38 = getelementptr inbounds nuw %struct._wmem_tree_key_t, ptr %37, i32 0, i32 1
  store ptr %14, ptr %38, align 8
  %39 = getelementptr [5 x %struct._wmem_tree_key_t], ptr %13, i64 0, i64 4
  %40 = getelementptr inbounds nuw %struct._wmem_tree_key_t, ptr %39, i32 0, i32 0
  store i32 0, ptr %40, align 16
  %41 = getelementptr [5 x %struct._wmem_tree_key_t], ptr %13, i64 0, i64 4
  %42 = getelementptr inbounds nuw %struct._wmem_tree_key_t, ptr %41, i32 0, i32 1
  store ptr null, ptr %42, align 8
  %43 = call ptr @wmem_file_scope()
  %44 = call noalias ptr @wmem_alloc(ptr noundef %43, i64 noundef 24) #15
  store ptr %44, ptr %15, align 8
  %45 = load ptr, ptr %8, align 8
  %46 = load i32, ptr %9, align 4
  %47 = call i32 @tvb_captured_length_remaining(ptr noundef %45, i32 noundef %46)
  %48 = load ptr, ptr %15, align 8
  %49 = getelementptr inbounds nuw %struct._fragment_data_t, ptr %48, i32 0, i32 0
  store i32 %47, ptr %49, align 8
  %50 = load i32, ptr %11, align 4
  %51 = load ptr, ptr %15, align 8
  %52 = getelementptr inbounds nuw %struct._fragment_data_t, ptr %51, i32 0, i32 1
  store i32 %50, ptr %52, align 4
  %53 = load i32, ptr %14, align 4
  %54 = load ptr, ptr %15, align 8
  %55 = getelementptr inbounds nuw %struct._fragment_data_t, ptr %54, i32 0, i32 2
  store i32 %53, ptr %55, align 8
  %56 = call ptr @wmem_file_scope()
  %57 = load ptr, ptr %8, align 8
  %58 = load i32, ptr %9, align 4
  %59 = load ptr, ptr %15, align 8
  %60 = getelementptr inbounds nuw %struct._fragment_data_t, ptr %59, i32 0, i32 0
  %61 = load i32, ptr %60, align 8
  %62 = zext i32 %61 to i64
  %63 = call ptr @tvb_memdup(ptr noundef %56, ptr noundef %57, i32 noundef %58, i64 noundef %62)
  %64 = load ptr, ptr %15, align 8
  %65 = getelementptr inbounds nuw %struct._fragment_data_t, ptr %64, i32 0, i32 3
  store ptr %63, ptr %65, align 8
  %66 = load ptr, ptr @fragments, align 8
  %67 = getelementptr inbounds [5 x %struct._wmem_tree_key_t], ptr %13, i64 0, i64 0
  %68 = load ptr, ptr %15, align 8
  call void @wmem_tree_insert32_array(ptr noundef %66, ptr noundef %67, ptr noundef %68)
  call void @llvm.lifetime.end.p0(i64 8, ptr %15) #12
  call void @llvm.lifetime.end.p0(i64 4, ptr %14) #12
  call void @llvm.lifetime.end.p0(i64 80, ptr %13) #12
  ret void
}