; Function Attrs: null_pointer_is_valid sspstrong uwtable
define internal fastcc void @save_value_fragment(i32 %.20.val, ptr noundef %0, i32 noundef %1, i32 noundef range(i32 0, 65536) %2, i32 noundef range(i32 0, 65536) %3, ptr noundef nonnull %4) unnamed_addr #1 {
  %6 = alloca i32, align 4
  %7 = alloca [5 x %struct._wmem_tree_key_t], align 16
  %8 = alloca i32, align 4
  store i32 %2, ptr %6, align 4
  call void @llvm.lifetime.start.p0(i64 80, ptr nonnull %7) #14
  call void @llvm.lifetime.start.p0(i64 4, ptr nonnull %8) #14
  store i32 %.20.val, ptr %8, align 4
  store i32 1, ptr %7, align 16
  %9 = getelementptr inbounds nuw i8, ptr %7, i64 8
  store ptr %4, ptr %9, align 8
  %10 = getelementptr inbounds nuw i8, ptr %7, i64 16
  store i32 1, ptr %10, align 16
  %11 = getelementptr inbounds nuw i8, ptr %4, i64 4
  %12 = getelementptr inbounds nuw i8, ptr %7, i64 24
  store ptr %11, ptr %12, align 8
  %13 = getelementptr inbounds nuw i8, ptr %7, i64 32
  store i32 1, ptr %13, align 16
  %14 = getelementptr inbounds nuw i8, ptr %7, i64 40
  store ptr %6, ptr %14, align 8
  %15 = getelementptr inbounds nuw i8, ptr %7, i64 48
  store i32 1, ptr %15, align 16
  %16 = getelementptr inbounds nuw i8, ptr %7, i64 56
  store ptr %8, ptr %16, align 8
  %17 = getelementptr inbounds nuw i8, ptr %7, i64 64
  store i32 0, ptr %17, align 16
  %18 = getelementptr inbounds nuw i8, ptr %7, i64 72
  store ptr null, ptr %18, align 8
  %19 = call ptr @wmem_file_scope()
  %20 = call noalias dereferenceable_or_null(24) ptr @wmem_alloc(ptr noundef %19, i64 noundef 24) #15
  %21 = call i32 @tvb_captured_length_remaining(ptr noundef %0, i32 noundef %1)
  store i32 %21, ptr %20, align 8
  %22 = getelementptr inbounds nuw i8, ptr %20, i64 4
  store i32 %3, ptr %22, align 4
  %23 = load i32, ptr %8, align 4
  %24 = getelementptr inbounds nuw i8, ptr %20, i64 8
  store i32 %23, ptr %24, align 8
  %25 = call ptr @wmem_file_scope()
  %26 = zext i32 %21 to i64
  %27 = call ptr @tvb_memdup(ptr noundef %25, ptr noundef %0, i32 noundef %1, i64 noundef %26)
  %28 = getelementptr inbounds nuw i8, ptr %20, i64 16
  store ptr %27, ptr %28, align 8
  %29 = load ptr, ptr @fragments, align 8
  call void @wmem_tree_insert32_array(ptr noundef %29, ptr noundef nonnull %7, ptr noundef %20)
  call void @llvm.lifetime.end.p0(i64 4, ptr nonnull %8) #14
  call void @llvm.lifetime.end.p0(i64 80, ptr nonnull %7) #14
  ret void
}